; Function Attrs: nounwind uwtable
define i32 @php_crc32_bulk_update(i32 noundef %0, ptr noundef %1, i64 noundef %2) local_unnamed_addr #0 {
  %4 = alloca i32, align 4
  store i32 %0, ptr %4, align 4
  %5 = call i64 @crc32_x86_simd_update(i32 noundef 1, ptr noundef nonnull %4, ptr noundef %1, i64 noundef %2) #4
  %6 = sub i64 %2, %5
  %.promoted = load i32, ptr %4, align 4
  %.not9 = icmp eq i64 %6, 0
  br i1 %.not9, label %._crit_edge, label %.lr.ph.preheader

.lr.ph.preheader:                                 ; preds = %3
  %7 = getelementptr inbounds i8, ptr %1, i64 %5
  br label %.lr.ph

.lr.ph:                                           ; preds = %.lr.ph.preheader, %.lr.ph
  %.011 = phi ptr [ %16, %.lr.ph ], [ %7, %.lr.ph.preheader ]
  %.0810 = phi i64 [ %9, %.lr.ph ], [ %6, %.lr.ph.preheader ]
  %8 = phi i32 [ %15, %.lr.ph ], [ %.promoted, %.lr.ph.preheader ]
  %9 = add i64 %.0810, -1
  %10 = lshr i32 %8, 8
  %11 = load i8, ptr %.011, align 1
  %.tr = trunc i32 %8 to i8
  %.narrow = xor i8 %11, %.tr
  %12 = zext i8 %.narrow to i64
  %13 = getelementptr inbounds [256 x i32], ptr @crc32tab, i64 0, i64 %12
  %14 = load i32, ptr %13, align 4
  %15 = xor i32 %14, %10
  %16 = getelementptr inbounds i8, ptr %.011, i64 1
  %.not = icmp eq i64 %9, 0
  br i1 %.not, label %._crit_edge, label %.lr.ph

._crit_edge:                                      ; preds = %.lr.ph, %3
  %17 = phi i32 [ %.promoted, %3 ], [ %15, %.lr.ph ]
  ret i32 %17
}